; Function Attrs: mustprogress nofree norecurse nosync nounwind willreturn memory(argmem: read) uwtable
define dso_local range(i64 -32768, 32768) i64 @int2shr(ptr noundef readonly captures(none) %0) local_unnamed_addr #7 {
  %2 = getelementptr inbounds nuw i8, ptr %0, i64 32
  %3 = load i64, ptr %2, align 8
  %4 = trunc i64 %3 to i32
  %5 = getelementptr inbounds nuw i8, ptr %0, i64 48
  %6 = load i64, ptr %5, align 8
  %7 = trunc i64 %6 to i32
  %sext = shl i32 %4, 16
  %8 = ashr exact i32 %sext, 16
  %9 = ashr i32 %8, %7
  %10 = zext i32 %9 to i64
  %sext3 = shl i64 %10, 48
  %11 = ashr exact i64 %sext3, 48
  ret i64 %11
}